target datalayout = "e-m:e-p270:32:32-p271:32:32-p272:64:64-i64:64-i128:128-f80:128-n8:16:32:64-S128"
target triple = "x86_64-pc-linux-gnu"

%struct.Mfs_Par_t_ = type { i32, i32, i32, i32, i32, i32, i32, i32, i32, i32, i32, i32, i32, i32, i32, i32, i32 }
%struct.Mfs_Man_t_ = type { ptr, ptr, ptr, ptr, i32, ptr, ptr, ptr, ptr, ptr, ptr, ptr, ptr, i32, i32, i32, i32, ptr, ptr, i32, i32, i32, ptr, ptr, ptr, ptr, ptr, ptr, ptr, i32, i32, ptr, i32, i32, i32, [128 x i32], i32, i32, i32, i32, i32, i32, i32, i32, i32, i32, i32, i32, i32, i32, double, i32, i32, i32, i32, float, float, i64, i64, i64, i64, i64, i64, i64, i64 }
%struct.Vec_Ptr_t_ = type { i32, i32, ptr }
%struct.Abc_Obj_t_ = type { ptr, ptr, i32, i32, %struct.Vec_Int_t_, %struct.Vec_Int_t_, %union.anon, %union.anon.0 }
%struct.Vec_Int_t_ = type { i32, i32, ptr }
%union.anon = type { ptr }
%union.anon.0 = type { ptr }

; Function Attrs: inlinehint nounwind uwtable
define internal i32 @Abc_ObjFaninNum(ptr noundef %0) #3 {
  %2 = alloca ptr, align 8
  store ptr %0, ptr %2, align 8, !tbaa !26
  %3 = load ptr, ptr %2, align 8, !tbaa !26
  %4 = getelementptr inbounds nuw %struct.Abc_Obj_t_, ptr %3, i32 0, i32 4
  %5 = getelementptr inbounds nuw %struct.Vec_Int_t_, ptr %4, i32 0, i32 1
  %6 = load i32, ptr %5, align 4, !tbaa !57
  ret i32 %6
}

; Function Attrs: inlinehint nounwind uwtable
define internal i32 @Vec_PtrSize(ptr noundef %0) #3 {
  %2 = alloca ptr, align 8
  store ptr %0, ptr %2, align 8, !tbaa !53
  %3 = load ptr, ptr %2, align 8, !tbaa !53
  %4 = getelementptr inbounds nuw %struct.Vec_Ptr_t_, ptr %3, i32 0, i32 1
  %5 = load i32, ptr %4, align 4, !tbaa !56
  ret i32 %5
}

; Function Attrs: inlinehint nounwind uwtable
define internal ptr @Vec_PtrArray(ptr noundef %0) #3 {
  %2 = alloca ptr, align 8
  store ptr %0, ptr %2, align 8, !tbaa !53
  %3 = load ptr, ptr %2, align 8, !tbaa !53
  %4 = getelementptr inbounds nuw %struct.Vec_Ptr_t_, ptr %3, i32 0, i32 2
  %5 = load ptr, ptr %4, align 8, !tbaa !54
  ret ptr %5
}

; Function Attrs: nounwind uwtable
define i32 @Abc_WinNode(ptr noundef %0, ptr noundef %1) #0 {
  %3 = alloca i32, align 4
  %4 = alloca ptr, align 8
  %5 = alloca ptr, align 8
  store ptr %0, ptr %4, align 8, !tbaa !24
  store ptr %1, ptr %5, align 8, !tbaa !26
  %6 = load ptr, ptr %4, align 8, !tbaa !24
  %7 = getelementptr inbounds nuw %struct.Mfs_Man_t_, ptr %6, i32 0, i32 40
  %8 = load i32, ptr %7, align 4, !tbaa !28
  %9 = add nsw i32 %8, 1
  store i32 %9, ptr %7, align 4, !tbaa !28
  %10 = load ptr, ptr %4, align 8, !tbaa !24
  call void @Mfs_ManClean(ptr noundef %10)
  %11 = load ptr, ptr %5, align 8, !tbaa !26
  %12 = load ptr, ptr %4, align 8, !tbaa !24
  %13 = getelementptr inbounds nuw %struct.Mfs_Man_t_, ptr %12, i32 0, i32 0
  %14 = load ptr, ptr %13, align 8, !tbaa !42
  %15 = getelementptr inbounds nuw %struct.Mfs_Par_t_, ptr %14, i32 0, i32 0
  %16 = load i32, ptr %15, align 4, !tbaa !8
  %17 = load ptr, ptr %4, align 8, !tbaa !24
  %18 = getelementptr inbounds nuw %struct.Mfs_Man_t_, ptr %17, i32 0, i32 0
  %19 = load ptr, ptr %18, align 8, !tbaa !42
  %20 = getelementptr inbounds nuw %struct.Mfs_Par_t_, ptr %19, i32 0, i32 1
  %21 = load i32, ptr %20, align 4, !tbaa !11
  %22 = call ptr @Abc_MfsComputeRoots(ptr noundef %11, i32 noundef %16, i32 noundef %21)
  %23 = load ptr, ptr %4, align 8, !tbaa !24
  %24 = getelementptr inbounds nuw %struct.Mfs_Man_t_, ptr %23, i32 0, i32 5
  store ptr %22, ptr %24, align 8, !tbaa !43
  %25 = load ptr, ptr %4, align 8, !tbaa !24
  %26 = getelementptr inbounds nuw %struct.Mfs_Man_t_, ptr %25, i32 0, i32 1
  %27 = load ptr, ptr %26, align 8, !tbaa !44
  %28 = load ptr, ptr %4, align 8, !tbaa !24
  %29 = getelementptr inbounds nuw %struct.Mfs_Man_t_, ptr %28, i32 0, i32 5
  %30 = load ptr, ptr %29, align 8, !tbaa !43
  %31 = call ptr @Vec_PtrArray(ptr noundef %30)
  %32 = load ptr, ptr %4, align 8, !tbaa !24
  %33 = getelementptr inbounds nuw %struct.Mfs_Man_t_, ptr %32, i32 0, i32 5
  %34 = load ptr, ptr %33, align 8, !tbaa !43
  %35 = call i32 @Vec_PtrSize(ptr noundef %34)
  %36 = call ptr @Abc_NtkNodeSupport(ptr noundef %27, ptr noundef %31, i32 noundef %35)
  %37 = load ptr, ptr %4, align 8, !tbaa !24
  %38 = getelementptr inbounds nuw %struct.Mfs_Man_t_, ptr %37, i32 0, i32 6
  store ptr %36, ptr %38, align 8, !tbaa !45
  %39 = load ptr, ptr %4, align 8, !tbaa !24
  %40 = getelementptr inbounds nuw %struct.Mfs_Man_t_, ptr %39, i32 0, i32 1
  %41 = load ptr, ptr %40, align 8, !tbaa !44
  %42 = load ptr, ptr %4, align 8, !tbaa !24
  %43 = getelementptr inbounds nuw %struct.Mfs_Man_t_, ptr %42, i32 0, i32 5
  %44 = load ptr, ptr %43, align 8, !tbaa !43
  %45 = call ptr @Vec_PtrArray(ptr noundef %44)
  %46 = load ptr, ptr %4, align 8, !tbaa !24
  %47 = getelementptr inbounds nuw %struct.Mfs_Man_t_, ptr %46, i32 0, i32 5
  %48 = load ptr, ptr %47, align 8, !tbaa !43
  %49 = call i32 @Vec_PtrSize(ptr noundef %48)
  %50 = call ptr @Abc_NtkDfsNodes(ptr noundef %41, ptr noundef %45, i32 noundef %49)
  %51 = load ptr, ptr %4, align 8, !tbaa !24
  %52 = getelementptr inbounds nuw %struct.Mfs_Man_t_, ptr %51, i32 0, i32 7
  store ptr %50, ptr %52, align 8, !tbaa !46
  %53 = load ptr, ptr %4, align 8, !tbaa !24
  %54 = getelementptr inbounds nuw %struct.Mfs_Man_t_, ptr %53, i32 0, i32 0
  %55 = load ptr, ptr %54, align 8, !tbaa !42
  %56 = getelementptr inbounds nuw %struct.Mfs_Par_t_, ptr %55, i32 0, i32 3
  %57 = load i32, ptr %56, align 4, !tbaa !13
  %58 = icmp ne i32 %57, 0
  br i1 %58, label %59, label %71

59:                                               ; preds = %2
  %60 = load ptr, ptr %4, align 8, !tbaa !24
  %61 = getelementptr inbounds nuw %struct.Mfs_Man_t_, ptr %60, i32 0, i32 7
  %62 = load ptr, ptr %61, align 8, !tbaa !46
  %63 = call i32 @Vec_PtrSize(ptr noundef %62)
  %64 = load ptr, ptr %4, align 8, !tbaa !24
  %65 = getelementptr inbounds nuw %struct.Mfs_Man_t_, ptr %64, i32 0, i32 0
  %66 = load ptr, ptr %65, align 8, !tbaa !42
  %67 = getelementptr inbounds nuw %struct.Mfs_Par_t_, ptr %66, i32 0, i32 3
  %68 = load i32, ptr %67, align 4, !tbaa !13
  %69 = icmp sgt i32 %63, %68
  br i1 %69, label %70, label %71

70:                                               ; preds = %59
  store i32 1, ptr %3, align 4
  br label %121

71:                                               ; preds = %59, %2
  %72 = load ptr, ptr %4, align 8, !tbaa !24
  %73 = load ptr, ptr %5, align 8, !tbaa !26
  %74 = load ptr, ptr %5, align 8, !tbaa !26
  %75 = call i32 @Abc_ObjRequiredLevel(ptr noundef %74)
  %76 = sub nsw i32 %75, 1
  %77 = call ptr @Abc_MfsComputeDivisors(ptr noundef %72, ptr noundef %73, i32 noundef %76)
  %78 = load ptr, ptr %4, align 8, !tbaa !24
  %79 = getelementptr inbounds nuw %struct.Mfs_Man_t_, ptr %78, i32 0, i32 8
  store ptr %77, ptr %79, align 8, !tbaa !47
  %80 = load ptr, ptr %4, align 8, !tbaa !24
  %81 = getelementptr inbounds nuw %struct.Mfs_Man_t_, ptr %80, i32 0, i32 8
  %82 = load ptr, ptr %81, align 8, !tbaa !47
  %83 = call i32 @Vec_PtrSize(ptr noundef %82)
  %84 = load ptr, ptr %5, align 8, !tbaa !26
  %85 = call i32 @Abc_ObjFaninNum(ptr noundef %84)
  %86 = sub nsw i32 %83, %85
  %87 = load ptr, ptr %4, align 8, !tbaa !24
  %88 = getelementptr inbounds nuw %struct.Mfs_Man_t_, ptr %87, i32 0, i32 45
  %89 = load i32, ptr %88, align 8, !tbaa !48
  %90 = add nsw i32 %89, %86
  store i32 %90, ptr %88, align 8, !tbaa !48
  %91 = load ptr, ptr %4, align 8, !tbaa !24
  %92 = load ptr, ptr %5, align 8, !tbaa !26
  %93 = call ptr @Abc_NtkConstructAig(ptr noundef %91, ptr noundef %92)
  %94 = load ptr, ptr %4, align 8, !tbaa !24
  %95 = getelementptr inbounds nuw %struct.Mfs_Man_t_, ptr %94, i32 0, i32 22
  store ptr %93, ptr %95, align 8, !tbaa !49
  %96 = load ptr, ptr %4, align 8, !tbaa !24
  %97 = getelementptr inbounds nuw %struct.Mfs_Man_t_, ptr %96, i32 0, i32 22
  %98 = load ptr, ptr %97, align 8, !tbaa !49
  %99 = load ptr, ptr %4, align 8, !tbaa !24
  %100 = getelementptr inbounds nuw %struct.Mfs_Man_t_, ptr %99, i32 0, i32 8
  %101 = load ptr, ptr %100, align 8, !tbaa !47
  %102 = call i32 @Vec_PtrSize(ptr noundef %101)
  %103 = add nsw i32 1, %102
  %104 = call ptr @Cnf_DeriveSimple(ptr noundef %98, i32 noundef %103)
  %105 = load ptr, ptr %4, align 8, !tbaa !24
  %106 = getelementptr inbounds nuw %struct.Mfs_Man_t_, ptr %105, i32 0, i32 23
  store ptr %104, ptr %106, align 8, !tbaa !50
  %107 = load ptr, ptr %4, align 8, !tbaa !24
  %108 = call ptr @Abc_MfsCreateSolverResub(ptr noundef %107, ptr noundef null, i32 noundef 0, i32 noundef 0)
  %109 = load ptr, ptr %4, align 8, !tbaa !24
  %110 = getelementptr inbounds nuw %struct.Mfs_Man_t_, ptr %109, i32 0, i32 24
  store ptr %108, ptr %110, align 8, !tbaa !51
  %111 = load ptr, ptr %4, align 8, !tbaa !24
  %112 = getelementptr inbounds nuw %struct.Mfs_Man_t_, ptr %111, i32 0, i32 24
  %113 = load ptr, ptr %112, align 8, !tbaa !51
  %114 = icmp eq ptr %113, null
  br i1 %114, label %115, label %120

115:                                              ; preds = %71
  %116 = load ptr, ptr %4, align 8, !tbaa !24
  %117 = getelementptr inbounds nuw %struct.Mfs_Man_t_, ptr %116, i32 0, i32 44
  %118 = load i32, ptr %117, align 4, !tbaa !52
  %119 = add nsw i32 %118, 1
  store i32 %119, ptr %117, align 4, !tbaa !52
  store i32 1, ptr %3, align 4
  br label %121

120:                                              ; preds = %71
  store i32 0, ptr %3, align 4
  br label %121

121:                                              ; preds = %120, %115, %70
  %122 = load i32, ptr %3, align 4
  ret i32 %122
}