; Function Attrs: nounwind uwtable
define range(i32 0, 2) i32 @Abc_WinNode(ptr noundef %0, ptr noundef %1) local_unnamed_addr #2 {
  %3 = getelementptr inbounds nuw i8, ptr %0, i64 764
  %4 = load i32, ptr %3, align 4, !tbaa !17
  %5 = add nsw i32 %4, 1
  store i32 %5, ptr %3, align 4, !tbaa !17
  tail call void @Mfs_ManClean(ptr noundef %0) #11
  %6 = load ptr, ptr %0, align 8, !tbaa !33
  %7 = load i32, ptr %6, align 4, !tbaa !3
  %8 = getelementptr inbounds nuw i8, ptr %6, i64 4
  %9 = load i32, ptr %8, align 4, !tbaa !8
  %10 = tail call ptr @Abc_MfsComputeRoots(ptr noundef %1, i32 noundef %7, i32 noundef %9) #11
  %11 = getelementptr inbounds nuw i8, ptr %0, i64 40
  store ptr %10, ptr %11, align 8, !tbaa !34
  %12 = getelementptr inbounds nuw i8, ptr %0, i64 8
  %13 = load ptr, ptr %12, align 8, !tbaa !35
  %14 = getelementptr i8, ptr %10, i64 8
  %.val = load ptr, ptr %14, align 8, !tbaa !36
  %15 = getelementptr i8, ptr %10, i64 4
  %.val35 = load i32, ptr %15, align 4, !tbaa !38
  %16 = tail call ptr @Abc_NtkNodeSupport(ptr noundef %13, ptr noundef %.val, i32 noundef %.val35) #11
  %17 = getelementptr inbounds nuw i8, ptr %0, i64 48
  store ptr %16, ptr %17, align 8, !tbaa !39
  %18 = load ptr, ptr %12, align 8, !tbaa !35
  %19 = load ptr, ptr %11, align 8, !tbaa !34
  %20 = getelementptr i8, ptr %19, i64 8
  %.val34 = load ptr, ptr %20, align 8, !tbaa !36
  %21 = getelementptr i8, ptr %19, i64 4
  %.val36 = load i32, ptr %21, align 4, !tbaa !38
  %22 = tail call ptr @Abc_NtkDfsNodes(ptr noundef %18, ptr noundef %.val34, i32 noundef %.val36) #11
  %23 = getelementptr inbounds nuw i8, ptr %0, i64 56
  store ptr %22, ptr %23, align 8, !tbaa !40
  %24 = load ptr, ptr %0, align 8, !tbaa !33
  %25 = getelementptr inbounds nuw i8, ptr %24, i64 12
  %26 = load i32, ptr %25, align 4, !tbaa !10
  %.not = icmp eq i32 %26, 0
  br i1 %.not, label %30, label %27

27:                                               ; preds = %2
  %28 = getelementptr i8, ptr %22, i64 4
  %.val37 = load i32, ptr %28, align 4, !tbaa !38
  %29 = icmp sgt i32 %.val37, %26
  br i1 %29, label %55, label %30

30:                                               ; preds = %27, %2
  %31 = tail call i32 @Abc_ObjRequiredLevel(ptr noundef %1) #11
  %32 = add nsw i32 %31, -1
  %33 = tail call ptr @Abc_MfsComputeDivisors(ptr noundef nonnull %0, ptr noundef %1, i32 noundef %32) #11
  %34 = getelementptr inbounds nuw i8, ptr %0, i64 64
  store ptr %33, ptr %34, align 8, !tbaa !41
  %35 = getelementptr i8, ptr %33, i64 4
  %.val38 = load i32, ptr %35, align 4, !tbaa !38
  %36 = getelementptr i8, ptr %1, i64 28
  %.val40 = load i32, ptr %36, align 4, !tbaa !42
  %37 = sub i32 %.val38, %.val40
  %38 = getelementptr inbounds nuw i8, ptr %0, i64 784
  %39 = load i32, ptr %38, align 8, !tbaa !47
  %40 = add nsw i32 %37, %39
  store i32 %40, ptr %38, align 8, !tbaa !47
  %41 = tail call ptr @Abc_NtkConstructAig(ptr noundef nonnull %0, ptr noundef %1) #11
  %42 = getelementptr inbounds nuw i8, ptr %0, i64 152
  store ptr %41, ptr %42, align 8, !tbaa !48
  %43 = load ptr, ptr %34, align 8, !tbaa !41
  %44 = getelementptr i8, ptr %43, i64 4
  %.val39 = load i32, ptr %44, align 4, !tbaa !38
  %45 = add nsw i32 %.val39, 1
  %46 = tail call ptr @Cnf_DeriveSimple(ptr noundef %41, i32 noundef %45) #11
  %47 = getelementptr inbounds nuw i8, ptr %0, i64 160
  store ptr %46, ptr %47, align 8, !tbaa !49
  %48 = tail call ptr @Abc_MfsCreateSolverResub(ptr noundef nonnull %0, ptr noundef null, i32 noundef 0, i32 noundef 0) #11
  %49 = getelementptr inbounds nuw i8, ptr %0, i64 168
  store ptr %48, ptr %49, align 8, !tbaa !50
  %50 = icmp eq ptr %48, null
  br i1 %50, label %51, label %55

51:                                               ; preds = %30
  %52 = getelementptr inbounds nuw i8, ptr %0, i64 780
  %53 = load i32, ptr %52, align 4, !tbaa !51
  %54 = add nsw i32 %53, 1
  store i32 %54, ptr %52, align 4, !tbaa !51
  br label %55

55:                                               ; preds = %30, %27, %51
  %.0 = phi i32 [ 1, %51 ], [ 1, %27 ], [ 0, %30 ]
  ret i32 %.0
}